target datalayout = "e-m:e-p270:32:32-p271:32:32-p272:64:64-i64:64-i128:128-f80:128-n8:16:32:64-S128"
target triple = "x86_64-pc-linux-gnu"

%"class.logos::Match" = type { ptr, ptr, float, float, float, float, float, float, float, float, float, float }
%"class.logos::PointPair" = type <{ ptr, ptr, i32, float, float, i32, i32, [4 x i8] }>
%"class.logos::Point" = type { float, float, float, float, %"class.std::vector", i8, i32 }
%"class.std::vector" = type { %"struct.std::_Vector_base" }
%"struct.std::_Vector_base" = type { %"struct.std::_Vector_base<logos::Point *, std::allocator<logos::Point *>>::_Vector_impl" }
%"struct.std::_Vector_base<logos::Point *, std::allocator<logos::Point *>>::_Vector_impl" = type { %"struct.std::_Vector_base<logos::Point *, std::allocator<logos::Point *>>::_Vector_impl_data" }
%"struct.std::_Vector_base<logos::Point *, std::allocator<logos::Point *>>::_Vector_impl_data" = type { ptr, ptr, ptr }

; Function Attrs: inlinehint mustprogress nounwind uwtable
define linkonce_odr hidden noundef float @_ZNK5logos5Point4getyEv(ptr noundef nonnull align 8 dereferenceable(48) %0) #6 comdat align 2 {
  %2 = alloca ptr, align 8
  store ptr %0, ptr %2, align 8, !tbaa !44
  %3 = load ptr, ptr %2, align 8
  %4 = getelementptr inbounds nuw %"class.logos::Point", ptr %3, i32 0, i32 1
  %5 = load float, ptr %4, align 4, !tbaa !54
  ret float %5
}

; Function Attrs: inlinehint mustprogress nounwind uwtable
define linkonce_odr hidden noundef float @_ZNK5logos5Point4getxEv(ptr noundef nonnull align 8 dereferenceable(48) %0) #6 comdat align 2 {
  %2 = alloca ptr, align 8
  store ptr %0, ptr %2, align 8, !tbaa !44
  %3 = load ptr, ptr %2, align 8
  %4 = getelementptr inbounds nuw %"class.logos::Point", ptr %3, i32 0, i32 0
  %5 = load float, ptr %4, align 8, !tbaa !45
  ret float %5
}

; Function Attrs: mustprogress nounwind uwtable
define linkonce_odr hidden noundef float @_ZNK5logos9PointPair5gety2Ev(ptr noundef nonnull align 8 dereferenceable(36) %0) #5 comdat align 2 {
  %2 = alloca ptr, align 8
  store ptr %0, ptr %2, align 8, !tbaa !8
  %3 = load ptr, ptr %2, align 8
  %4 = getelementptr inbounds nuw %"class.logos::PointPair", ptr %3, i32 0, i32 1
  %5 = load ptr, ptr %4, align 8, !tbaa !29
  %6 = call noundef float @_ZNK5logos5Point4getyEv(ptr noundef nonnull align 8 dereferenceable(48) %5)
  ret float %6
}

; Function Attrs: mustprogress nounwind uwtable
define linkonce_odr hidden noundef float @_ZNK5logos9PointPair5getx2Ev(ptr noundef nonnull align 8 dereferenceable(36) %0) #5 comdat align 2 {
  %2 = alloca ptr, align 8
  store ptr %0, ptr %2, align 8, !tbaa !8
  %3 = load ptr, ptr %2, align 8
  %4 = getelementptr inbounds nuw %"class.logos::PointPair", ptr %3, i32 0, i32 1
  %5 = load ptr, ptr %4, align 8, !tbaa !29
  %6 = call noundef float @_ZNK5logos5Point4getxEv(ptr noundef nonnull align 8 dereferenceable(48) %5)
  ret float %6
}

; Function Attrs: mustprogress uwtable
define linkonce_odr hidden noundef float @_ZNK5logos9PointPair5gety1Ev(ptr noundef nonnull align 8 dereferenceable(36) %0) #4 comdat align 2 {
  %2 = alloca ptr, align 8
  store ptr %0, ptr %2, align 8, !tbaa !8
  %3 = load ptr, ptr %2, align 8
  %4 = getelementptr inbounds nuw %"class.logos::PointPair", ptr %3, i32 0, i32 0
  %5 = load ptr, ptr %4, align 8, !tbaa !25
  %6 = call noundef float @_ZNK5logos5Point4getyEv(ptr noundef nonnull align 8 dereferenceable(48) %5)
  ret float %6
}

; Function Attrs: mustprogress uwtable
define linkonce_odr hidden noundef float @_ZNK5logos9PointPair5getx1Ev(ptr noundef nonnull align 8 dereferenceable(36) %0) #4 comdat align 2 {
  %2 = alloca ptr, align 8
  store ptr %0, ptr %2, align 8, !tbaa !8
  %3 = load ptr, ptr %2, align 8
  %4 = getelementptr inbounds nuw %"class.logos::PointPair", ptr %3, i32 0, i32 0
  %5 = load ptr, ptr %4, align 8, !tbaa !25
  %6 = call noundef float @_ZNK5logos5Point4getxEv(ptr noundef nonnull align 8 dereferenceable(48) %5)
  ret float %6
}

; Function Attrs: mustprogress uwtable
define hidden void @_ZN5logos5Match26calculateInternalVariablesEv(ptr noundef nonnull align 8 dereferenceable(56) %0) #4 align 2 {
  %2 = alloca ptr, align 8
  store ptr %0, ptr %2, align 8, !tbaa !3
  %3 = load ptr, ptr %2, align 8
  %4 = getelementptr inbounds nuw %"class.logos::Match", ptr %3, i32 0, i32 0
  %5 = load ptr, ptr %4, align 8, !tbaa !10
  %6 = call noundef float @_ZNK5logos9PointPair5getx1Ev(ptr noundef nonnull align 8 dereferenceable(36) %5)
  %7 = getelementptr inbounds nuw %"class.logos::Match", ptr %3, i32 0, i32 1
  %8 = load ptr, ptr %7, align 8, !tbaa !13
  %9 = call noundef float @_ZNK5logos9PointPair5getx1Ev(ptr noundef nonnull align 8 dereferenceable(36) %8)
  %10 = fsub float %6, %9
  %11 = getelementptr inbounds nuw %"class.logos::Match", ptr %3, i32 0, i32 8
  store float %10, ptr %11, align 8, !tbaa !14
  %12 = getelementptr inbounds nuw %"class.logos::Match", ptr %3, i32 0, i32 0
  %13 = load ptr, ptr %12, align 8, !tbaa !10
  %14 = call noundef float @_ZNK5logos9PointPair5gety1Ev(ptr noundef nonnull align 8 dereferenceable(36) %13)
  %15 = getelementptr inbounds nuw %"class.logos::Match", ptr %3, i32 0, i32 1
  %16 = load ptr, ptr %15, align 8, !tbaa !13
  %17 = call noundef float @_ZNK5logos9PointPair5gety1Ev(ptr noundef nonnull align 8 dereferenceable(36) %16)
  %18 = fsub float %14, %17
  %19 = getelementptr inbounds nuw %"class.logos::Match", ptr %3, i32 0, i32 9
  store float %18, ptr %19, align 4, !tbaa !15
  %20 = getelementptr inbounds nuw %"class.logos::Match", ptr %3, i32 0, i32 0
  %21 = load ptr, ptr %20, align 8, !tbaa !10
  %22 = call noundef float @_ZNK5logos9PointPair5getx2Ev(ptr noundef nonnull align 8 dereferenceable(36) %21)
  %23 = getelementptr inbounds nuw %"class.logos::Match", ptr %3, i32 0, i32 1
  %24 = load ptr, ptr %23, align 8, !tbaa !13
  %25 = call noundef float @_ZNK5logos9PointPair5getx2Ev(ptr noundef nonnull align 8 dereferenceable(36) %24)
  %26 = fsub float %22, %25
  %27 = getelementptr inbounds nuw %"class.logos::Match", ptr %3, i32 0, i32 10
  store float %26, ptr %27, align 8, !tbaa !16
  %28 = getelementptr inbounds nuw %"class.logos::Match", ptr %3, i32 0, i32 0
  %29 = load ptr, ptr %28, align 8, !tbaa !10
  %30 = call noundef float @_ZNK5logos9PointPair5gety2Ev(ptr noundef nonnull align 8 dereferenceable(36) %29)
  %31 = getelementptr inbounds nuw %"class.logos::Match", ptr %3, i32 0, i32 1
  %32 = load ptr, ptr %31, align 8, !tbaa !13
  %33 = call noundef float @_ZNK5logos9PointPair5gety2Ev(ptr noundef nonnull align 8 dereferenceable(36) %32)
  %34 = fsub float %30, %33
  %35 = getelementptr inbounds nuw %"class.logos::Match", ptr %3, i32 0, i32 11
  store float %34, ptr %35, align 4, !tbaa !17
  ret void
}