; Function Attrs: mustprogress nofree norecurse nosync nounwind willreturn memory(read, argmem: readwrite, inaccessiblemem: none) uwtable
define hidden void @_ZN5logos5Match26calculateInternalVariablesEv(ptr noundef nonnull align 8 captures(none) dereferenceable(56) initializes((40, 56)) %0) local_unnamed_addr #4 align 2 {
  %2 = load ptr, ptr %0, align 8, !tbaa !3
  %3 = load ptr, ptr %2, align 8, !tbaa !11
  %4 = load float, ptr %3, align 8, !tbaa !15
  %5 = getelementptr inbounds nuw i8, ptr %0, i64 8
  %6 = load ptr, ptr %5, align 8, !tbaa !10
  %7 = load ptr, ptr %6, align 8, !tbaa !11
  %8 = load float, ptr %7, align 8, !tbaa !15
  %9 = fsub float %4, %8
  %10 = getelementptr inbounds nuw i8, ptr %0, i64 40
  store float %9, ptr %10, align 8, !tbaa !24
  %11 = getelementptr inbounds nuw i8, ptr %3, i64 4
  %12 = load float, ptr %11, align 4, !tbaa !25
  %13 = getelementptr inbounds nuw i8, ptr %7, i64 4
  %14 = load float, ptr %13, align 4, !tbaa !25
  %15 = fsub float %12, %14
  %16 = getelementptr inbounds nuw i8, ptr %0, i64 44
  store float %15, ptr %16, align 4, !tbaa !26
  %17 = getelementptr inbounds nuw i8, ptr %2, i64 8
  %18 = load ptr, ptr %17, align 8, !tbaa !27
  %19 = load float, ptr %18, align 8, !tbaa !15
  %20 = getelementptr inbounds nuw i8, ptr %6, i64 8
  %21 = load ptr, ptr %20, align 8, !tbaa !27
  %22 = load float, ptr %21, align 8, !tbaa !15
  %23 = fsub float %19, %22
  %24 = getelementptr inbounds nuw i8, ptr %0, i64 48
  store float %23, ptr %24, align 8, !tbaa !28
  %25 = getelementptr inbounds nuw i8, ptr %18, i64 4
  %26 = load float, ptr %25, align 4, !tbaa !25
  %27 = getelementptr inbounds nuw i8, ptr %21, i64 4
  %28 = load float, ptr %27, align 4, !tbaa !25
  %29 = fsub float %26, %28
  %30 = getelementptr inbounds nuw i8, ptr %0, i64 52
  store float %29, ptr %30, align 4, !tbaa !29
  ret void
}